target datalayout = "e-m:e-p270:32:32-p271:32:32-p272:64:64-i64:64-i128:128-f80:128-n8:16:32:64-S128"
target triple = "x86_64-pc-linux-gnu"

%class.rational = type { %class.mpq }
%class.mpq = type { %class.mpz, %class.mpz }
%class.mpz = type { i32, i8, ptr }
%class.svector.9 = type { %class.vector.10 }
%class.vector.10 = type { ptr }
%"class.dd::pdd_manager" = type { %class.svector, %class.vector.0, %class.ptr_hashtable, %class.hashtable, %class.hashtable.3, %class.map, %class.svector.9, ptr, %class.svector.9, %class.svector.9, %class.svector.9, %class.svector.9, %class.small_object_allocator, %class.svector.9, i32, %class.svector.9, %class.svector.9, %class.svector.11, i8, i8, i32, i32, %class.svector.9, %class.svector.9, %class.rational, %class.rational, i32, %class.rational, %class.svector.9, i32, %class.svector.9, %class.svector.9, %class.rational, %class.rational }
%class.svector = type { %class.vector }
%class.vector = type { ptr }
%class.vector.0 = type { ptr }
%class.ptr_hashtable = type { %class.core_hashtable.base, [4 x i8] }
%class.core_hashtable.base = type <{ ptr, i32, i32, i32 }>
%class.hashtable = type { %class.core_hashtable.base.2, [4 x i8] }
%class.core_hashtable.base.2 = type <{ ptr, i32, i32, i32 }>
%class.hashtable.3 = type { %class.core_hashtable.base.5, [4 x i8] }
%class.core_hashtable.base.5 = type <{ ptr, i32, i32, i32 }>
%class.map = type { %class.table2map }
%class.table2map = type { %class.core_hashtable.7 }
%class.core_hashtable.7 = type <{ ptr, i32, i32, i32, [4 x i8] }>
%class.small_object_allocator = type { [32 x ptr], [32 x ptr], i64 }
%class.svector.11 = type { %class.vector.12 }
%class.vector.12 = type { ptr }
%"struct.dd::pdd_manager::node" = type { i32, i32, i32, i32 }

; Function Attrs: mustprogress nounwind uwtable
define linkonce_odr hidden noundef zeroext i1 @_ZNK2dd11pdd_manager4node6is_valEv(ptr noundef nonnull align 4 dereferenceable(16) %0) #5 comdat align 2 {
  %2 = alloca ptr, align 8
  store ptr %0, ptr %2, align 8, !tbaa !124
  %3 = load ptr, ptr %2, align 8
  %4 = getelementptr inbounds nuw %"struct.dd::pdd_manager::node", ptr %3, i32 0, i32 2
  %5 = load i32, ptr %4, align 4, !tbaa !128
  %6 = icmp eq i32 %5, 0
  br i1 %6, label %7, label %17

7:                                                ; preds = %1
  %8 = getelementptr inbounds nuw %"struct.dd::pdd_manager::node", ptr %3, i32 0, i32 1
  %9 = load i32, ptr %8, align 4, !tbaa !127
  %10 = icmp ne i32 %9, 0
  br i1 %10, label %15, label %11

11:                                               ; preds = %7
  %12 = getelementptr inbounds nuw %"struct.dd::pdd_manager::node", ptr %3, i32 0, i32 3
  %13 = load i32, ptr %12, align 4, !tbaa !95
  %14 = icmp eq i32 %13, 0
  br label %15

15:                                               ; preds = %11, %7
  %16 = phi i1 [ true, %7 ], [ %14, %11 ]
  br label %17

17:                                               ; preds = %15, %1
  %18 = phi i1 [ false, %1 ], [ %16, %15 ]
  ret i1 %18
}

; Function Attrs: mustprogress nounwind uwtable
define linkonce_odr hidden noundef nonnull align 4 dereferenceable(16) ptr @_ZNK6vectorIN2dd11pdd_manager4nodeELb0EjEixEj(ptr noundef nonnull align 8 dereferenceable(8) %0, i32 noundef %1) #5 comdat align 2 {
  %3 = alloca ptr, align 8
  %4 = alloca i32, align 4
  store ptr %0, ptr %3, align 8, !tbaa !108
  store i32 %1, ptr %4, align 4, !tbaa !8
  %5 = load ptr, ptr %3, align 8
  %6 = getelementptr inbounds nuw %class.vector, ptr %5, i32 0, i32 0
  %7 = load ptr, ptr %6, align 8, !tbaa !123
  %8 = load i32, ptr %4, align 4, !tbaa !8
  %9 = zext i32 %8 to i64
  %10 = getelementptr inbounds nuw %"struct.dd::pdd_manager::node", ptr %7, i64 %9
  ret ptr %10
}

; Function Attrs: inlinehint mustprogress nounwind uwtable
define linkonce_odr hidden noundef i32 @_ZNK2dd11pdd_manager2hiEj(ptr noundef nonnull align 8 dereferenceable(952) %0, i32 noundef %1) #8 comdat align 2 {
  %3 = alloca ptr, align 8
  %4 = alloca i32, align 4
  store ptr %0, ptr %3, align 8, !tbaa !3
  store i32 %1, ptr %4, align 4, !tbaa !8
  %5 = load ptr, ptr %3, align 8
  %6 = getelementptr inbounds nuw %"class.dd::pdd_manager", ptr %5, i32 0, i32 0
  %7 = load i32, ptr %4, align 4, !tbaa !8
  %8 = call noundef nonnull align 4 dereferenceable(16) ptr @_ZNK6vectorIN2dd11pdd_manager4nodeELb0EjEixEj(ptr noundef nonnull align 8 dereferenceable(8) %6, i32 noundef %7)
  %9 = getelementptr inbounds nuw %"struct.dd::pdd_manager::node", ptr %8, i32 0, i32 2
  %10 = load i32, ptr %9, align 4, !tbaa !128
  ret i32 %10
}

; Function Attrs: inlinehint mustprogress nounwind uwtable
define linkonce_odr hidden noundef zeroext i1 @_ZNK2dd11pdd_manager7is_zeroEj(ptr noundef nonnull align 8 dereferenceable(952) %0, i32 noundef %1) #8 comdat align 2 {
  %3 = alloca ptr, align 8
  %4 = alloca i32, align 4
  store ptr %0, ptr %3, align 8, !tbaa !3
  store i32 %1, ptr %4, align 4, !tbaa !8
  %5 = load i32, ptr %4, align 4, !tbaa !8
  %6 = icmp eq i32 %5, 0
  ret i1 %6
}

; Function Attrs: inlinehint mustprogress nounwind uwtable
define linkonce_odr hidden noundef i32 @_ZNK2dd11pdd_manager2loEj(ptr noundef nonnull align 8 dereferenceable(952) %0, i32 noundef %1) #8 comdat align 2 {
  %3 = alloca ptr, align 8
  %4 = alloca i32, align 4
  store ptr %0, ptr %3, align 8, !tbaa !3
  store i32 %1, ptr %4, align 4, !tbaa !8
  %5 = load ptr, ptr %3, align 8
  %6 = getelementptr inbounds nuw %"class.dd::pdd_manager", ptr %5, i32 0, i32 0
  %7 = load i32, ptr %4, align 4, !tbaa !8
  %8 = call noundef nonnull align 4 dereferenceable(16) ptr @_ZNK6vectorIN2dd11pdd_manager4nodeELb0EjEixEj(ptr noundef nonnull align 8 dereferenceable(8) %6, i32 noundef %7)
  %9 = getelementptr inbounds nuw %"struct.dd::pdd_manager::node", ptr %8, i32 0, i32 1
  %10 = load i32, ptr %9, align 4, !tbaa !127
  ret i32 %10
}

; Function Attrs: inlinehint mustprogress uwtable
define linkonce_odr hidden noundef zeroext i1 @_ZNK2dd11pdd_manager6is_valEj(ptr noundef nonnull align 8 dereferenceable(952) %0, i32 noundef %1) #7 comdat align 2 {
  %3 = alloca ptr, align 8
  %4 = alloca i32, align 4
  store ptr %0, ptr %3, align 8, !tbaa !3
  store i32 %1, ptr %4, align 4, !tbaa !8
  %5 = load ptr, ptr %3, align 8
  %6 = getelementptr inbounds nuw %"class.dd::pdd_manager", ptr %5, i32 0, i32 0
  %7 = load i32, ptr %4, align 4, !tbaa !8
  %8 = call noundef nonnull align 4 dereferenceable(16) ptr @_ZNK6vectorIN2dd11pdd_manager4nodeELb0EjEixEj(ptr noundef nonnull align 8 dereferenceable(8) %6, i32 noundef %7)
  %9 = call noundef zeroext i1 @_ZNK2dd11pdd_manager4node6is_valEv(ptr noundef nonnull align 4 dereferenceable(16) %8)
  ret i1 %9
}

; Function Attrs: mustprogress uwtable
define hidden noundef zeroext i1 @_ZN2dd11pdd_manager11is_monomialEj(ptr noundef nonnull align 8 dereferenceable(952) %0, i32 noundef %1) #4 align 2 {
  %3 = alloca i1, align 1
  %4 = alloca ptr, align 8
  %5 = alloca i32, align 4
  store ptr %0, ptr %4, align 8, !tbaa !3
  store i32 %1, ptr %5, align 4, !tbaa !8
  %6 = load ptr, ptr %4, align 8
  br label %7

7:                                                ; preds = %2, %16
  %8 = load i32, ptr %5, align 4, !tbaa !8
  %9 = call noundef zeroext i1 @_ZNK2dd11pdd_manager6is_valEj(ptr noundef nonnull align 8 dereferenceable(952) %6, i32 noundef %8)
  br i1 %9, label %10, label %11

10:                                               ; preds = %7
  store i1 true, ptr %3, align 1
  br label %19

11:                                               ; preds = %7
  %12 = load i32, ptr %5, align 4, !tbaa !8
  %13 = call noundef i32 @_ZNK2dd11pdd_manager2loEj(ptr noundef nonnull align 8 dereferenceable(952) %6, i32 noundef %12)
  %14 = call noundef zeroext i1 @_ZNK2dd11pdd_manager7is_zeroEj(ptr noundef nonnull align 8 dereferenceable(952) %6, i32 noundef %13)
  br i1 %14, label %16, label %15

15:                                               ; preds = %11
  store i1 false, ptr %3, align 1
  br label %19

16:                                               ; preds = %11
  %17 = load i32, ptr %5, align 4, !tbaa !8
  %18 = call noundef i32 @_ZNK2dd11pdd_manager2hiEj(ptr noundef nonnull align 8 dereferenceable(952) %6, i32 noundef %17)
  store i32 %18, ptr %5, align 4, !tbaa !8
  br label %7, !llvm.loop !238

19:                                               ; preds = %15, %10
  %20 = load i1, ptr %3, align 1
  ret i1 %20
}