; Function Attrs: mustprogress nofree norecurse nosync nounwind willreturn memory(read, inaccessiblemem: none) uwtable
define hidden noundef zeroext i1 @_ZN2dd11pdd_manager11is_monomialEj(ptr noundef nonnull readonly align 8 captures(none) dereferenceable(952) %0, i32 noundef %1) local_unnamed_addr #15 align 2 {
  %3 = load ptr, ptr %0, align 8, !tbaa !91
  br label %_ZNK2dd11pdd_manager6is_valEj.exit.thread5.thread

_ZNK2dd11pdd_manager6is_valEj.exit.thread5.thread: ; preds = %_ZNK2dd11pdd_manager6is_valEj.exit.thread5.thread.backedge, %2
  %.0 = phi i32 [ %1, %2 ], [ %7, %_ZNK2dd11pdd_manager6is_valEj.exit.thread5.thread.backedge ]
  %4 = zext i32 %.0 to i64
  %5 = getelementptr inbounds nuw %"struct.dd::pdd_manager::node", ptr %3, i64 %4
  %6 = getelementptr inbounds nuw i8, ptr %5, i64 8
  %7 = load i32, ptr %6, align 4, !tbaa !92
  %8 = icmp eq i32 %7, 0
  br i1 %8, label %9, label %_ZNK2dd11pdd_manager6is_valEj.exit.thread5

9:                                                ; preds = %_ZNK2dd11pdd_manager6is_valEj.exit.thread5.thread
  %10 = getelementptr inbounds nuw i8, ptr %5, i64 4
  %11 = load i32, ptr %10, align 4, !tbaa !94
  %.not.i.i = icmp eq i32 %11, 0
  br i1 %.not.i.i, label %_ZNK2dd11pdd_manager6is_valEj.exit, label %_ZNK2dd11pdd_manager6is_valEj.exit.thread

_ZNK2dd11pdd_manager6is_valEj.exit:               ; preds = %9
  %12 = getelementptr inbounds nuw i8, ptr %5, i64 12
  %13 = load i32, ptr %12, align 4, !tbaa !98
  %14 = icmp eq i32 %13, 0
  br i1 %14, label %_ZNK2dd11pdd_manager6is_valEj.exit.thread, label %_ZNK2dd11pdd_manager6is_valEj.exit.thread5.thread.backedge

_ZNK2dd11pdd_manager6is_valEj.exit.thread5.thread.backedge: ; preds = %_ZNK2dd11pdd_manager6is_valEj.exit, %_ZNK2dd11pdd_manager6is_valEj.exit.thread5
  br label %_ZNK2dd11pdd_manager6is_valEj.exit.thread5.thread, !llvm.loop !463

_ZNK2dd11pdd_manager6is_valEj.exit.thread5:       ; preds = %_ZNK2dd11pdd_manager6is_valEj.exit.thread5.thread
  %.phi.trans.insert = getelementptr inbounds nuw %"struct.dd::pdd_manager::node", ptr %3, i64 %4, i32 1
  %.pre = load i32, ptr %.phi.trans.insert, align 4, !tbaa !94
  %15 = icmp eq i32 %.pre, 0
  br i1 %15, label %_ZNK2dd11pdd_manager6is_valEj.exit.thread5.thread.backedge, label %_ZNK2dd11pdd_manager6is_valEj.exit.thread

_ZNK2dd11pdd_manager6is_valEj.exit.thread:        ; preds = %9, %_ZNK2dd11pdd_manager6is_valEj.exit.thread5, %_ZNK2dd11pdd_manager6is_valEj.exit
  ret i1 %8
}